target datalayout = "e-m:e-p270:32:32-p271:32:32-p272:64:64-i64:64-i128:128-f80:128-n8:16:32:64-S128"
target triple = "x86_64-pc-linux-gnu"

%struct.RelFileLocator = type { i32, i32, i32 }
%struct.ItemPointerData = type { %struct.BlockIdData, i16 }
%struct.BlockIdData = type { i16, i16 }
%struct.IndexScanDescData = type { ptr, ptr, ptr, i32, i32, ptr, ptr, i8, i8, i8, i8, i8, ptr, ptr, ptr, ptr, ptr, %struct.ItemPointerData, i8, ptr, i8, ptr, ptr, i8, ptr }
%struct.BTParallelScanDescData = type { i32, i32, i32, i8, %struct.ConditionVariable, [0 x i32] }
%struct.ConditionVariable = type { i8, %struct.proclist_head }
%struct.proclist_head = type { i32, i32 }
%struct.ParallelIndexScanDescData = type { %struct.RelFileLocator, %struct.RelFileLocator, i64, [0 x i8] }

@.str = private unnamed_addr constant [9 x i8] c"nbtree.c\00", align 1
@__func__._bt_parallel_release = private unnamed_addr constant [21 x i8] c"_bt_parallel_release\00", align 1

; Function Attrs: inlinehint nounwind uwtable
define internal i32 @tas(ptr noundef %0) #2 {
  %2 = alloca ptr, align 8
  %3 = alloca i8, align 1
  store ptr %0, ptr %2, align 8
  call void @llvm.lifetime.start.p0(i64 1, ptr %3) #8
  store i8 1, ptr %3, align 1
  %4 = load i8, ptr %3, align 1
  %5 = load ptr, ptr %2, align 8
  %6 = call i8 asm sideeffect "\09lock\09\09\09\0A\09xchgb\09$0,$1\09\0A", "=q,=*m,0,*m,~{memory},~{cc},~{dirflag},~{fpsr},~{flags}"(ptr elementtype(i8) %5, i8 %4, ptr elementtype(i8) %5) #8, !srcloc !11
  store i8 %6, ptr %3, align 1
  %7 = load i8, ptr %3, align 1
  %8 = zext i8 %7 to i32
  call void @llvm.lifetime.end.p0(i64 1, ptr %3) #8
  ret i32 %8
}

; Function Attrs: nounwind uwtable
define dso_local void @_bt_parallel_release(ptr noundef %0, i32 noundef %1, i32 noundef %2) #0 {
  %4 = alloca ptr, align 8
  %5 = alloca i32, align 4
  %6 = alloca i32, align 4
  %7 = alloca ptr, align 8
  %8 = alloca ptr, align 8
  store ptr %0, ptr %4, align 8
  store i32 %1, ptr %5, align 4
  store i32 %2, ptr %6, align 4
  call void @llvm.lifetime.start.p0(i64 8, ptr %7) #8
  %9 = load ptr, ptr %4, align 8
  %10 = getelementptr inbounds nuw %struct.IndexScanDescData, ptr %9, i32 0, i32 24
  %11 = load ptr, ptr %10, align 8
  store ptr %11, ptr %7, align 8
  call void @llvm.lifetime.start.p0(i64 8, ptr %8) #8
  %12 = load ptr, ptr %7, align 8
  %13 = load ptr, ptr %7, align 8
  %14 = getelementptr inbounds nuw %struct.ParallelIndexScanDescData, ptr %13, i32 0, i32 2
  %15 = load i64, ptr %14, align 8
  %16 = getelementptr inbounds nuw i8, ptr %12, i64 %15
  store ptr %16, ptr %8, align 8
  %17 = load ptr, ptr %8, align 8
  %18 = getelementptr inbounds nuw %struct.BTParallelScanDescData, ptr %17, i32 0, i32 3
  %19 = call i32 @tas(ptr noundef %18)
  %20 = icmp ne i32 %19, 0
  br i1 %20, label %21, label %25

21:                                               ; preds = %3
  %22 = load ptr, ptr %8, align 8
  %23 = getelementptr inbounds nuw %struct.BTParallelScanDescData, ptr %22, i32 0, i32 3
  %24 = call i32 @s_lock(ptr noundef %23, ptr noundef @.str, i32 noundef 761, ptr noundef @__func__._bt_parallel_release)
  br label %26

25:                                               ; preds = %3
  br label %26

26:                                               ; preds = %25, %21
  %27 = load i32, ptr %5, align 4
  %28 = load ptr, ptr %8, align 8
  %29 = getelementptr inbounds nuw %struct.BTParallelScanDescData, ptr %28, i32 0, i32 0
  store i32 %27, ptr %29, align 4
  %30 = load i32, ptr %6, align 4
  %31 = load ptr, ptr %8, align 8
  %32 = getelementptr inbounds nuw %struct.BTParallelScanDescData, ptr %31, i32 0, i32 1
  store i32 %30, ptr %32, align 4
  %33 = load ptr, ptr %8, align 8
  %34 = getelementptr inbounds nuw %struct.BTParallelScanDescData, ptr %33, i32 0, i32 2
  store i32 3, ptr %34, align 4
  br label %35

35:                                               ; preds = %26
  call void asm sideeffect "", "~{memory},~{dirflag},~{fpsr},~{flags}"() #8, !srcloc !15
  %36 = load ptr, ptr %8, align 8
  %37 = getelementptr inbounds nuw %struct.BTParallelScanDescData, ptr %36, i32 0, i32 3
  store i8 0, ptr %37, align 4
  br label %38

38:                                               ; preds = %35
  br label %39

39:                                               ; preds = %38
  %40 = load ptr, ptr %8, align 8
  %41 = getelementptr inbounds nuw %struct.BTParallelScanDescData, ptr %40, i32 0, i32 4
  call void @ConditionVariableSignal(ptr noundef %41)
  call void @llvm.lifetime.end.p0(i64 8, ptr %8) #8
  call void @llvm.lifetime.end.p0(i64 8, ptr %7) #8
  ret void
}