; Function Attrs: nounwind uwtable
define dso_local void @_bt_parallel_release(ptr noundef readonly captures(none) %0, i32 noundef %1, i32 noundef %2) local_unnamed_addr #0 {
  %4 = getelementptr inbounds nuw i8, ptr %0, i64 144
  %5 = load ptr, ptr %4, align 8
  %6 = getelementptr inbounds nuw i8, ptr %5, i64 24
  %7 = load i64, ptr %6, align 8
  %8 = getelementptr inbounds nuw i8, ptr %5, i64 %7
  %9 = getelementptr inbounds nuw i8, ptr %8, i64 12
  %10 = tail call i8 asm sideeffect "\09lock\09\09\09\0A\09xchgb\09$0,$1\09\0A", "=q,=*m,0,*m,~{memory},~{cc},~{dirflag},~{fpsr},~{flags}"(ptr nonnull elementtype(i8) %9, i8 1, ptr nonnull elementtype(i8) %9) #8, !srcloc !10
  %.not = icmp eq i8 %10, 0
  br i1 %.not, label %13, label %11

11:                                               ; preds = %3
  %12 = tail call i32 @s_lock(ptr noundef nonnull %9, ptr noundef nonnull @.str, i32 noundef 761, ptr noundef nonnull @__func__._bt_parallel_release) #8
  br label %13

13:                                               ; preds = %3, %11
  store i32 %1, ptr %8, align 4
  %14 = getelementptr inbounds nuw i8, ptr %8, i64 4
  store i32 %2, ptr %14, align 4
  %15 = getelementptr inbounds nuw i8, ptr %8, i64 8
  store i32 3, ptr %15, align 4
  tail call void asm sideeffect "", "~{memory},~{dirflag},~{fpsr},~{flags}"() #8, !srcloc !15
  store i8 0, ptr %9, align 4
  %16 = getelementptr inbounds nuw i8, ptr %8, i64 16
  tail call void @ConditionVariableSignal(ptr noundef nonnull %16) #8
  ret void
}